; ModuleID = '50/2265.c'
source_filename = "50/2265.c"
target datalayout = "e-m:e-p270:32:32-p271:32:32-p272:64:64-i64:64-f80:128-n8:16:32:64-S128"
target triple = "x86_64-pc-linux-gnu"

@.str = private unnamed_addr constant [3 x i8] c"%d\00", align 1
@.str.1 = private unnamed_addr constant [4 x i8] c"%d\0A\00", align 1

; Function Attrs: noinline nounwind uwtable
define dso_local i32 @main() #0 {
  %1 = alloca i32, align 4
  %2 = alloca i32, align 4
  %3 = alloca [13 x i32], align 16
  %4 = alloca i32, align 4
  store i32 0, i32* %1, align 4
  %5 = call i32 (i8*, ...) @__isoc99_scanf(i8* getelementptr inbounds ([3 x i8], [3 x i8]* @.str, i64 0, i64 0), i32* %2)
  %6 = getelementptr inbounds [13 x i32], [13 x i32]* %3, i64 0, i64 1
  store i32 31, i32* %6, align 4
  %7 = getelementptr inbounds [13 x i32], [13 x i32]* %3, i64 0, i64 2
  store i32 28, i32* %7, align 8
  %8 = getelementptr inbounds [13 x i32], [13 x i32]* %3, i64 0, i64 3
  store i32 31, i32* %8, align 4
  %9 = getelementptr inbounds [13 x i32], [13 x i32]* %3, i64 0, i64 4
  store i32 30, i32* %9, align 16
  %10 = getelementptr inbounds [13 x i32], [13 x i32]* %3, i64 0, i64 5
  store i32 31, i32* %10, align 4
  %11 = getelementptr inbounds [13 x i32], [13 x i32]* %3, i64 0, i64 6
  store i32 30, i32* %11, align 8
  %12 = getelementptr inbounds [13 x i32], [13 x i32]* %3, i64 0, i64 7
  store i32 31, i32* %12, align 4
  %13 = getelementptr inbounds [13 x i32], [13 x i32]* %3, i64 0, i64 8
  store i32 31, i32* %13, align 16
  %14 = getelementptr inbounds [13 x i32], [13 x i32]* %3, i64 0, i64 9
  store i32 30, i32* %14, align 4
  %15 = getelementptr inbounds [13 x i32], [13 x i32]* %3, i64 0, i64 10
  store i32 31, i32* %15, align 8
  %16 = getelementptr inbounds [13 x i32], [13 x i32]* %3, i64 0, i64 11
  store i32 30, i32* %16, align 4
  %17 = getelementptr inbounds [13 x i32], [13 x i32]* %3, i64 0, i64 12
  store i32 31, i32* %17, align 16
  store i32 1, i32* %4, align 4
  br label %18

18:                                               ; preds = %38, %0
  %19 = load i32, i32* %4, align 4
  %20 = icmp sle i32 %19, 12
  br i1 %20, label %21, label %41

21:                                               ; preds = %18
  %22 = load i32, i32* %2, align 4
  %23 = add nsw i32 13, %22
  %24 = sub nsw i32 %23, 1
  %25 = srem i32 %24, 7
  %26 = icmp eq i32 %25, 5
  br i1 %26, label %27, label %30

27:                                               ; preds = %21
  %28 = load i32, i32* %4, align 4
  %29 = call i32 (i8*, ...) @printf(i8* getelementptr inbounds ([4 x i8], [4 x i8]* @.str.1, i64 0, i64 0), i32 %28)
  br label %30

30:                                               ; preds = %27, %21
  %31 = load i32, i32* %2, align 4
  %32 = load i32, i32* %4, align 4
  %33 = sext i32 %32 to i64
  %34 = getelementptr inbounds [13 x i32], [13 x i32]* %3, i64 0, i64 %33
  %35 = load i32, i32* %34, align 4
  %36 = add nsw i32 %31, %35
  %37 = srem i32 %36, 7
  store i32 %37, i32* %2, align 4
  br label %38

38:                                               ; preds = %30
  %39 = load i32, i32* %4, align 4
  %40 = add nsw i32 %39, 1
  store i32 %40, i32* %4, align 4
  br label %18

41:                                               ; preds = %18
  %42 = load i32, i32* %1, align 4
  ret i32 %42
}

declare dso_local i32 @__isoc99_scanf(i8*, ...) #1

declare dso_local i32 @printf(i8*, ...) #1


!llvm.module.flags = !{!0}
!llvm.ident = !{!1}

!0 = !{i32 1, !"wchar_size", i32 4}
!1 = !{!"clang version 10.0.0-4ubuntu1 "}
